target datalayout = "e-m:e-p270:32:32-p271:32:32-p272:64:64-i64:64-i128:128-f80:128-n8:16:32:64-S128"
target triple = "x86_64-pc-linux-gnu"

%struct.CVodeMemRec = type { double, ptr, ptr, i32, i32, i32, double, double, ptr, i32, ptr, ptr, i32, ptr, i32, i32, double, double, ptr, i32, i32, i32, ptr, ptr, ptr, i32, i32, ptr, ptr, ptr, i32, double, i32, i32, double, ptr, ptr, i32, ptr, ptr, i32, i32, i32, double, ptr, ptr, [13 x ptr], ptr, ptr, ptr, ptr, ptr, [13 x ptr], ptr, ptr, ptr, ptr, [13 x ptr], ptr, ptr, ptr, ptr, ptr, i32, [13 x ptr], ptr, ptr, ptr, ptr, ptr, i32, double, i32, i32, i32, i32, i32, double, double, double, double, double, double, double, double, [14 x double], [6 x double], [13 x double], double, double, double, double, double, double, double, double, double, double, double, i32, ptr, i32, i64, i32, i32, i32, i32, i32, double, double, double, i64, i64, i64, i64, i64, i64, i64, i64, i64, ptr, i64, i64, ptr, i64, i64, i64, i64, i64, i64, i32, i64, i64, i64, i64, i64, i64, double, double, double, ptr, ptr, ptr, ptr, ptr, i32, i32, i64, double, double, double, i32, double, i32, i32, i32, i32, i32, i32, i32, i32, i32, i32, i32, i32, i32, i32, i32, i32, ptr, ptr, ptr, i32, [6 x [4 x double]], i32, i64, ptr, i32, ptr, ptr, double, double, double, ptr, ptr, ptr, double, double, i32, i32, i64, ptr, i32, i32, ptr, i32 }
%struct.CVadjMemRec = type { double, double, i32, i32, double, ptr, i32, ptr, i32, ptr, i32, ptr, i64, ptr, i64, i32, ptr, ptr, ptr, ptr, i32, i32, i32, i32, [13 x ptr], [13 x ptr], [13 x double], ptr, ptr, i64 }

@.str = private unnamed_addr constant [7 x i8] c"CVODEA\00", align 1
@.str.1 = private unnamed_addr constant [13 x i8] c"CVodeAdjInit\00", align 1
@.str.2 = private unnamed_addr constant [26 x i8] c"cvode_mem = NULL illegal.\00", align 1
@.str.3 = private unnamed_addr constant [27 x i8] c"Steps nonpositive illegal.\00", align 1
@.str.4 = private unnamed_addr constant [26 x i8] c"Illegal value for interp.\00", align 1
@.str.5 = private unnamed_addr constant [25 x i8] c"A memory request failed.\00", align 1

; Function Attrs: nounwind uwtable
define i32 @CVodeAdjInit(ptr noundef %0, i64 noundef %1, i32 noundef %2) #0 {
  %4 = alloca i32, align 4
  %5 = alloca ptr, align 8
  %6 = alloca i64, align 8
  %7 = alloca i32, align 4
  %8 = alloca ptr, align 8
  %9 = alloca ptr, align 8
  %10 = alloca i64, align 8
  %11 = alloca i64, align 8
  %12 = alloca i32, align 4
  store ptr %0, ptr %5, align 8, !tbaa !3
  store i64 %1, ptr %6, align 8, !tbaa !7
  store i32 %2, ptr %7, align 4, !tbaa !9
  call void @llvm.lifetime.start.p0(i64 8, ptr %8) #5
  call void @llvm.lifetime.start.p0(i64 8, ptr %9) #5
  call void @llvm.lifetime.start.p0(i64 8, ptr %10) #5
  call void @llvm.lifetime.start.p0(i64 8, ptr %11) #5
  %13 = load ptr, ptr %5, align 8, !tbaa !3
  %14 = icmp eq ptr %13, null
  br i1 %14, label %15, label %16

15:                                               ; preds = %3
  call void (ptr, i32, ptr, ptr, ptr, ...) @cvProcessError(ptr noundef null, i32 noundef -21, ptr noundef @.str, ptr noundef @.str.1, ptr noundef @.str.2)
  store i32 -21, ptr %4, align 4
  store i32 1, ptr %12, align 4
  br label %166

16:                                               ; preds = %3
  %17 = load ptr, ptr %5, align 8, !tbaa !3
  store ptr %17, ptr %9, align 8, !tbaa !11
  %18 = load i64, ptr %6, align 8, !tbaa !7
  %19 = icmp sle i64 %18, 0
  br i1 %19, label %20, label %22

20:                                               ; preds = %16
  %21 = load ptr, ptr %9, align 8, !tbaa !11
  call void (ptr, i32, ptr, ptr, ptr, ...) @cvProcessError(ptr noundef %21, i32 noundef -22, ptr noundef @.str, ptr noundef @.str.1, ptr noundef @.str.3)
  store i32 -22, ptr %4, align 4
  store i32 1, ptr %12, align 4
  br label %166

22:                                               ; preds = %16
  %23 = load i32, ptr %7, align 4, !tbaa !9
  %24 = icmp ne i32 %23, 1
  br i1 %24, label %25, label %30

25:                                               ; preds = %22
  %26 = load i32, ptr %7, align 4, !tbaa !9
  %27 = icmp ne i32 %26, 2
  br i1 %27, label %28, label %30

28:                                               ; preds = %25
  %29 = load ptr, ptr %9, align 8, !tbaa !11
  call void (ptr, i32, ptr, ptr, ptr, ...) @cvProcessError(ptr noundef %29, i32 noundef -22, ptr noundef @.str, ptr noundef @.str.1, ptr noundef @.str.4)
  store i32 -22, ptr %4, align 4
  store i32 1, ptr %12, align 4
  br label %166

30:                                               ; preds = %25, %22
  store ptr null, ptr %8, align 8, !tbaa !13
  %31 = call noalias ptr @malloc(i64 noundef 504) #6
  store ptr %31, ptr %8, align 8, !tbaa !13
  %32 = load ptr, ptr %8, align 8, !tbaa !13
  %33 = icmp eq ptr %32, null
  br i1 %33, label %34, label %36

34:                                               ; preds = %30
  %35 = load ptr, ptr %9, align 8, !tbaa !11
  call void (ptr, i32, ptr, ptr, ptr, ...) @cvProcessError(ptr noundef %35, i32 noundef -20, ptr noundef @.str, ptr noundef @.str.1, ptr noundef @.str.5)
  store i32 -20, ptr %4, align 4
  store i32 1, ptr %12, align 4
  br label %166

36:                                               ; preds = %30
  %37 = load ptr, ptr %8, align 8, !tbaa !13
  %38 = load ptr, ptr %9, align 8, !tbaa !11
  %39 = getelementptr inbounds nuw %struct.CVodeMemRec, ptr %38, i32 0, i32 194
  store ptr %37, ptr %39, align 8, !tbaa !15
  %40 = load ptr, ptr %8, align 8, !tbaa !13
  %41 = getelementptr inbounds nuw %struct.CVadjMemRec, ptr %40, i32 0, i32 9
  store ptr null, ptr %41, align 8, !tbaa !24
  %42 = load ptr, ptr %8, align 8, !tbaa !13
  %43 = getelementptr inbounds nuw %struct.CVadjMemRec, ptr %42, i32 0, i32 10
  store i32 0, ptr %43, align 8, !tbaa !29
  %44 = load ptr, ptr %8, align 8, !tbaa !13
  %45 = getelementptr inbounds nuw %struct.CVadjMemRec, ptr %44, i32 0, i32 11
  store ptr null, ptr %45, align 8, !tbaa !30
  %46 = load i32, ptr %7, align 4, !tbaa !9
  %47 = load ptr, ptr %8, align 8, !tbaa !13
  %48 = getelementptr inbounds nuw %struct.CVadjMemRec, ptr %47, i32 0, i32 15
  store i32 %46, ptr %48, align 8, !tbaa !31
  %49 = load i64, ptr %6, align 8, !tbaa !7
  %50 = load ptr, ptr %8, align 8, !tbaa !13
  %51 = getelementptr inbounds nuw %struct.CVadjMemRec, ptr %50, i32 0, i32 12
  store i64 %49, ptr %51, align 8, !tbaa !32
  %52 = load ptr, ptr %8, align 8, !tbaa !13
  %53 = getelementptr inbounds nuw %struct.CVadjMemRec, ptr %52, i32 0, i32 13
  store ptr null, ptr %53, align 8, !tbaa !33
  %54 = load i64, ptr %6, align 8, !tbaa !7
  %55 = add nsw i64 %54, 1
  %56 = mul i64 %55, 8
  %57 = call noalias ptr @malloc(i64 noundef %56) #6
  %58 = load ptr, ptr %8, align 8, !tbaa !13
  %59 = getelementptr inbounds nuw %struct.CVadjMemRec, ptr %58, i32 0, i32 13
  store ptr %57, ptr %59, align 8, !tbaa !33
  %60 = load ptr, ptr %8, align 8, !tbaa !13
  %61 = getelementptr inbounds nuw %struct.CVadjMemRec, ptr %60, i32 0, i32 13
  %62 = load ptr, ptr %61, align 8, !tbaa !33
  %63 = icmp eq ptr %62, null
  br i1 %63, label %64, label %67

64:                                               ; preds = %36
  %65 = load ptr, ptr %8, align 8, !tbaa !13
  call void @free(ptr noundef %65) #5
  store ptr null, ptr %8, align 8, !tbaa !13
  %66 = load ptr, ptr %9, align 8, !tbaa !11
  call void (ptr, i32, ptr, ptr, ptr, ...) @cvProcessError(ptr noundef %66, i32 noundef -20, ptr noundef @.str, ptr noundef @.str.1, ptr noundef @.str.5)
  store i32 -20, ptr %4, align 4
  store i32 1, ptr %12, align 4
  br label %166

67:                                               ; preds = %36
  store i64 0, ptr %10, align 8, !tbaa !7
  br label %68

68:                                               ; preds = %120, %67
  %69 = load i64, ptr %10, align 8, !tbaa !7
  %70 = load i64, ptr %6, align 8, !tbaa !7
  %71 = icmp sle i64 %69, %70
  br i1 %71, label %72, label %123

72:                                               ; preds = %68
  %73 = load ptr, ptr %8, align 8, !tbaa !13
  %74 = getelementptr inbounds nuw %struct.CVadjMemRec, ptr %73, i32 0, i32 13
  %75 = load ptr, ptr %74, align 8, !tbaa !33
  %76 = load i64, ptr %10, align 8, !tbaa !7
  %77 = getelementptr inbounds ptr, ptr %75, i64 %76
  store ptr null, ptr %77, align 8, !tbaa !34
  %78 = call noalias ptr @malloc(i64 noundef 16) #6
  %79 = load ptr, ptr %8, align 8, !tbaa !13
  %80 = getelementptr inbounds nuw %struct.CVadjMemRec, ptr %79, i32 0, i32 13
  %81 = load ptr, ptr %80, align 8, !tbaa !33
  %82 = load i64, ptr %10, align 8, !tbaa !7
  %83 = getelementptr inbounds ptr, ptr %81, i64 %82
  store ptr %78, ptr %83, align 8, !tbaa !34
  %84 = load ptr, ptr %8, align 8, !tbaa !13
  %85 = getelementptr inbounds nuw %struct.CVadjMemRec, ptr %84, i32 0, i32 13
  %86 = load ptr, ptr %85, align 8, !tbaa !33
  %87 = load i64, ptr %10, align 8, !tbaa !7
  %88 = getelementptr inbounds ptr, ptr %86, i64 %87
  %89 = load ptr, ptr %88, align 8, !tbaa !34
  %90 = icmp eq ptr %89, null
  br i1 %90, label %91, label %119

91:                                               ; preds = %72
  store i64 0, ptr %11, align 8, !tbaa !7
  br label %92

92:                                               ; preds = %108, %91
  %93 = load i64, ptr %11, align 8, !tbaa !7
  %94 = load i64, ptr %10, align 8, !tbaa !7
  %95 = icmp slt i64 %93, %94
  br i1 %95, label %96, label %111

96:                                               ; preds = %92
  %97 = load ptr, ptr %8, align 8, !tbaa !13
  %98 = getelementptr inbounds nuw %struct.CVadjMemRec, ptr %97, i32 0, i32 13
  %99 = load ptr, ptr %98, align 8, !tbaa !33
  %100 = load i64, ptr %11, align 8, !tbaa !7
  %101 = getelementptr inbounds ptr, ptr %99, i64 %100
  %102 = load ptr, ptr %101, align 8, !tbaa !34
  call void @free(ptr noundef %102) #5
  %103 = load ptr, ptr %8, align 8, !tbaa !13
  %104 = getelementptr inbounds nuw %struct.CVadjMemRec, ptr %103, i32 0, i32 13
  %105 = load ptr, ptr %104, align 8, !tbaa !33
  %106 = load i64, ptr %11, align 8, !tbaa !7
  %107 = getelementptr inbounds ptr, ptr %105, i64 %106
  store ptr null, ptr %107, align 8, !tbaa !34
  br label %108

108:                                              ; preds = %96
  %109 = load i64, ptr %11, align 8, !tbaa !7
  %110 = add nsw i64 %109, 1
  store i64 %110, ptr %11, align 8, !tbaa !7
  br label %92, !llvm.loop !36

111:                                              ; preds = %92
  %112 = load ptr, ptr %8, align 8, !tbaa !13
  %113 = getelementptr inbounds nuw %struct.CVadjMemRec, ptr %112, i32 0, i32 13
  %114 = load ptr, ptr %113, align 8, !tbaa !33
  call void @free(ptr noundef %114) #5
  %115 = load ptr, ptr %8, align 8, !tbaa !13
  %116 = getelementptr inbounds nuw %struct.CVadjMemRec, ptr %115, i32 0, i32 13
  store ptr null, ptr %116, align 8, !tbaa !33
  %117 = load ptr, ptr %8, align 8, !tbaa !13
  call void @free(ptr noundef %117) #5
  store ptr null, ptr %8, align 8, !tbaa !13
  %118 = load ptr, ptr %9, align 8, !tbaa !11
  call void (ptr, i32, ptr, ptr, ptr, ...) @cvProcessError(ptr noundef %118, i32 noundef -20, ptr noundef @.str, ptr noundef @.str.1, ptr noundef @.str.5)
  store i32 -20, ptr %4, align 4
  store i32 1, ptr %12, align 4
  br label %166

119:                                              ; preds = %72
  br label %120

120:                                              ; preds = %119
  %121 = load i64, ptr %10, align 8, !tbaa !7
  %122 = add nsw i64 %121, 1
  store i64 %122, ptr %10, align 8, !tbaa !7
  br label %68, !llvm.loop !38

123:                                              ; preds = %68
  %124 = load i32, ptr %7, align 4, !tbaa !9
  switch i32 %124, label %143 [
    i32 1, label %125
    i32 2, label %134
  ]

125:                                              ; preds = %123
  %126 = load ptr, ptr %8, align 8, !tbaa !13
  %127 = getelementptr inbounds nuw %struct.CVadjMemRec, ptr %126, i32 0, i32 16
  store ptr @CVAhermiteMalloc, ptr %127, align 8, !tbaa !39
  %128 = load ptr, ptr %8, align 8, !tbaa !13
  %129 = getelementptr inbounds nuw %struct.CVadjMemRec, ptr %128, i32 0, i32 17
  store ptr @CVAhermiteFree, ptr %129, align 8, !tbaa !40
  %130 = load ptr, ptr %8, align 8, !tbaa !13
  %131 = getelementptr inbounds nuw %struct.CVadjMemRec, ptr %130, i32 0, i32 19
  store ptr @CVAhermiteGetY, ptr %131, align 8, !tbaa !41
  %132 = load ptr, ptr %8, align 8, !tbaa !13
  %133 = getelementptr inbounds nuw %struct.CVadjMemRec, ptr %132, i32 0, i32 18
  store ptr @CVAhermiteStorePnt, ptr %133, align 8, !tbaa !42
  br label %143

134:                                              ; preds = %123
  %135 = load ptr, ptr %8, align 8, !tbaa !13
  %136 = getelementptr inbounds nuw %struct.CVadjMemRec, ptr %135, i32 0, i32 16
  store ptr @CVApolynomialMalloc, ptr %136, align 8, !tbaa !39
  %137 = load ptr, ptr %8, align 8, !tbaa !13
  %138 = getelementptr inbounds nuw %struct.CVadjMemRec, ptr %137, i32 0, i32 17
  store ptr @CVApolynomialFree, ptr %138, align 8, !tbaa !40
  %139 = load ptr, ptr %8, align 8, !tbaa !13
  %140 = getelementptr inbounds nuw %struct.CVadjMemRec, ptr %139, i32 0, i32 19
  store ptr @CVApolynomialGetY, ptr %140, align 8, !tbaa !41
  %141 = load ptr, ptr %8, align 8, !tbaa !13
  %142 = getelementptr inbounds nuw %struct.CVadjMemRec, ptr %141, i32 0, i32 18
  store ptr @CVApolynomialStorePnt, ptr %142, align 8, !tbaa !42
  br label %143

143:                                              ; preds = %123, %134, %125
  %144 = load ptr, ptr %8, align 8, !tbaa !13
  %145 = getelementptr inbounds nuw %struct.CVadjMemRec, ptr %144, i32 0, i32 20
  store i32 0, ptr %145, align 8, !tbaa !43
  %146 = load ptr, ptr %8, align 8, !tbaa !13
  %147 = getelementptr inbounds nuw %struct.CVadjMemRec, ptr %146, i32 0, i32 22
  store i32 1, ptr %147, align 8, !tbaa !44
  %148 = load ptr, ptr %8, align 8, !tbaa !13
  %149 = getelementptr inbounds nuw %struct.CVadjMemRec, ptr %148, i32 0, i32 23
  store i32 0, ptr %149, align 4, !tbaa !45
  %150 = load ptr, ptr %8, align 8, !tbaa !13
  %151 = getelementptr inbounds nuw %struct.CVadjMemRec, ptr %150, i32 0, i32 5
  store ptr null, ptr %151, align 8, !tbaa !46
  %152 = load ptr, ptr %8, align 8, !tbaa !13
  %153 = getelementptr inbounds nuw %struct.CVadjMemRec, ptr %152, i32 0, i32 7
  store ptr null, ptr %153, align 8, !tbaa !47
  %154 = load ptr, ptr %8, align 8, !tbaa !13
  %155 = getelementptr inbounds nuw %struct.CVadjMemRec, ptr %154, i32 0, i32 6
  store i32 0, ptr %155, align 8, !tbaa !48
  %156 = load ptr, ptr %8, align 8, !tbaa !13
  %157 = getelementptr inbounds nuw %struct.CVadjMemRec, ptr %156, i32 0, i32 2
  store i32 1, ptr %157, align 8, !tbaa !49
  %158 = load ptr, ptr %8, align 8, !tbaa !13
  %159 = getelementptr inbounds nuw %struct.CVadjMemRec, ptr %158, i32 0, i32 3
  store i32 0, ptr %159, align 4, !tbaa !50
  %160 = load ptr, ptr %8, align 8, !tbaa !13
  %161 = getelementptr inbounds nuw %struct.CVadjMemRec, ptr %160, i32 0, i32 8
  store i32 1, ptr %161, align 8, !tbaa !51
  %162 = load ptr, ptr %9, align 8, !tbaa !11
  %163 = getelementptr inbounds nuw %struct.CVodeMemRec, ptr %162, i32 0, i32 193
  store i32 1, ptr %163, align 4, !tbaa !52
  %164 = load ptr, ptr %9, align 8, !tbaa !11
  %165 = getelementptr inbounds nuw %struct.CVodeMemRec, ptr %164, i32 0, i32 195
  store i32 1, ptr %165, align 8, !tbaa !53
  store i32 0, ptr %4, align 4
  store i32 1, ptr %12, align 4
  br label %166

166:                                              ; preds = %143, %111, %64, %34, %28, %20, %15
  call void @llvm.lifetime.end.p0(i64 8, ptr %11) #5
  call void @llvm.lifetime.end.p0(i64 8, ptr %10) #5
  call void @llvm.lifetime.end.p0(i64 8, ptr %9) #5
  call void @llvm.lifetime.end.p0(i64 8, ptr %8) #5
  %167 = load i32, ptr %4, align 4
  ret i32 %167
}