; Function Attrs: nounwind uwtable
define range(i32 -22, 1) i32 @CVodeAdjInit(ptr noundef %0, i64 noundef %1, i32 noundef %2) local_unnamed_addr #0 {
  %4 = icmp eq ptr %0, null
  br i1 %4, label %5, label %6

5:                                                ; preds = %3
  tail call void (ptr, i32, ptr, ptr, ptr, ...) @cvProcessError(ptr noundef null, i32 noundef -21, ptr noundef nonnull @.str, ptr noundef nonnull @.str.1, ptr noundef nonnull @.str.2) #8
  br label %58

6:                                                ; preds = %3
  %7 = icmp slt i64 %1, 1
  br i1 %7, label %8, label %9

8:                                                ; preds = %6
  tail call void (ptr, i32, ptr, ptr, ptr, ...) @cvProcessError(ptr noundef nonnull %0, i32 noundef -22, ptr noundef nonnull @.str, ptr noundef nonnull @.str.1, ptr noundef nonnull @.str.3) #8
  br label %58

9:                                                ; preds = %6
  %10 = add i32 %2, -3
  %or.cond = icmp ult i32 %10, -2
  br i1 %or.cond, label %11, label %12

11:                                               ; preds = %9
  tail call void (ptr, i32, ptr, ptr, ptr, ...) @cvProcessError(ptr noundef nonnull %0, i32 noundef -22, ptr noundef nonnull @.str, ptr noundef nonnull @.str.1, ptr noundef nonnull @.str.4) #8
  br label %58

12:                                               ; preds = %9
  %13 = tail call noalias dereferenceable_or_null(504) ptr @malloc(i64 noundef 504) #9
  %14 = icmp eq ptr %13, null
  br i1 %14, label %15, label %16

15:                                               ; preds = %12
  tail call void (ptr, i32, ptr, ptr, ptr, ...) @cvProcessError(ptr noundef nonnull %0, i32 noundef -20, ptr noundef nonnull @.str, ptr noundef nonnull @.str.1, ptr noundef nonnull @.str.5) #8
  br label %58

16:                                               ; preds = %12
  %17 = getelementptr inbounds nuw i8, ptr %0, i64 2192
  store ptr %13, ptr %17, align 8, !tbaa !3
  %18 = getelementptr inbounds nuw i8, ptr %13, i64 64
  store ptr null, ptr %18, align 8, !tbaa !18
  %19 = getelementptr inbounds nuw i8, ptr %13, i64 72
  store i32 0, ptr %19, align 8, !tbaa !23
  %20 = getelementptr inbounds nuw i8, ptr %13, i64 80
  store ptr null, ptr %20, align 8, !tbaa !24
  %21 = getelementptr inbounds nuw i8, ptr %13, i64 112
  store i32 %2, ptr %21, align 8, !tbaa !25
  %22 = getelementptr inbounds nuw i8, ptr %13, i64 88
  store i64 %1, ptr %22, align 8, !tbaa !26
  %23 = getelementptr inbounds nuw i8, ptr %13, i64 96
  %24 = shl i64 %1, 3
  %25 = add i64 %24, 8
  %26 = tail call noalias ptr @malloc(i64 noundef %25) #9
  store ptr %26, ptr %23, align 8, !tbaa !27
  %27 = icmp eq ptr %26, null
  br i1 %27, label %28, label %.lr.ph

28:                                               ; preds = %16
  tail call void @free(ptr noundef nonnull %13) #8
  tail call void (ptr, i32, ptr, ptr, ptr, ...) @cvProcessError(ptr noundef nonnull %0, i32 noundef -20, ptr noundef nonnull @.str, ptr noundef nonnull @.str.1, ptr noundef nonnull @.str.5) #8
  br label %58

.lr.ph:                                           ; preds = %16, %39
  %.06573 = phi i64 [ %40, %39 ], [ 0, %16 ]
  %29 = getelementptr inbounds nuw ptr, ptr %26, i64 %.06573
  %30 = tail call noalias dereferenceable_or_null(16) ptr @malloc(i64 noundef 16) #9
  store ptr %30, ptr %29, align 8, !tbaa !28
  %31 = icmp eq ptr %30, null
  br i1 %31, label %.preheader, label %39

.preheader:                                       ; preds = %.lr.ph
  %.not = icmp eq i64 %.06573, 0
  br i1 %.not, label %._crit_edge76, label %.lr.ph75

.lr.ph75:                                         ; preds = %.preheader, %.lr.ph75
  %32 = phi ptr [ %35, %.lr.ph75 ], [ %26, %.preheader ]
  %.074 = phi i64 [ %37, %.lr.ph75 ], [ 0, %.preheader ]
  %33 = getelementptr inbounds nuw ptr, ptr %32, i64 %.074
  %34 = load ptr, ptr %33, align 8, !tbaa !28
  tail call void @free(ptr noundef %34) #8
  %35 = load ptr, ptr %23, align 8, !tbaa !27
  %36 = getelementptr inbounds nuw ptr, ptr %35, i64 %.074
  store ptr null, ptr %36, align 8, !tbaa !28
  %37 = add nuw nsw i64 %.074, 1
  %exitcond80.not = icmp eq i64 %37, %.06573
  br i1 %exitcond80.not, label %._crit_edge76, label %.lr.ph75, !llvm.loop !30

._crit_edge76:                                    ; preds = %.lr.ph75, %.preheader
  %38 = phi ptr [ %26, %.preheader ], [ %35, %.lr.ph75 ]
  tail call void @free(ptr noundef nonnull %38) #8
  tail call void @free(ptr noundef %13) #8
  tail call void (ptr, i32, ptr, ptr, ptr, ...) @cvProcessError(ptr noundef nonnull %0, i32 noundef -20, ptr noundef nonnull @.str, ptr noundef nonnull @.str.1, ptr noundef nonnull @.str.5) #8
  br label %58

39:                                               ; preds = %.lr.ph
  %40 = add nuw i64 %.06573, 1
  %exitcond.not = icmp eq i64 %.06573, %1
  br i1 %exitcond.not, label %._crit_edge, label %.lr.ph, !llvm.loop !32

._crit_edge:                                      ; preds = %39
  switch i32 %2, label %46 [
    i32 1, label %.sink.split
    i32 2, label %41
  ]

41:                                               ; preds = %._crit_edge
  br label %.sink.split

.sink.split:                                      ; preds = %._crit_edge, %41
  %CVApolynomialMalloc.sink = phi ptr [ @CVApolynomialMalloc, %41 ], [ @CVAhermiteMalloc, %._crit_edge ]
  %CVApolynomialFree.sink = phi ptr [ @CVApolynomialFree, %41 ], [ @CVAhermiteFree, %._crit_edge ]
  %CVApolynomialGetY.sink = phi ptr [ @CVApolynomialGetY, %41 ], [ @CVAhermiteGetY, %._crit_edge ]
  %CVApolynomialStorePnt.sink = phi ptr [ @CVApolynomialStorePnt, %41 ], [ @CVAhermiteStorePnt, %._crit_edge ]
  %42 = getelementptr inbounds nuw i8, ptr %13, i64 120
  store ptr %CVApolynomialMalloc.sink, ptr %42, align 8, !tbaa !33
  %43 = getelementptr inbounds nuw i8, ptr %13, i64 128
  store ptr %CVApolynomialFree.sink, ptr %43, align 8, !tbaa !34
  %44 = getelementptr inbounds nuw i8, ptr %13, i64 144
  store ptr %CVApolynomialGetY.sink, ptr %44, align 8, !tbaa !35
  %45 = getelementptr inbounds nuw i8, ptr %13, i64 136
  store ptr %CVApolynomialStorePnt.sink, ptr %45, align 8, !tbaa !36
  br label %46

46:                                               ; preds = %.sink.split, %._crit_edge
  %47 = getelementptr inbounds nuw i8, ptr %13, i64 152
  store i32 0, ptr %47, align 8, !tbaa !37
  %48 = getelementptr inbounds nuw i8, ptr %13, i64 160
  store i32 1, ptr %48, align 8, !tbaa !38
  %49 = getelementptr inbounds nuw i8, ptr %13, i64 164
  store i32 0, ptr %49, align 4, !tbaa !39
  %50 = getelementptr inbounds nuw i8, ptr %13, i64 32
  store ptr null, ptr %50, align 8, !tbaa !40
  %51 = getelementptr inbounds nuw i8, ptr %13, i64 48
  store ptr null, ptr %51, align 8, !tbaa !41
  %52 = getelementptr inbounds nuw i8, ptr %13, i64 40
  store i32 0, ptr %52, align 8, !tbaa !42
  %53 = getelementptr inbounds nuw i8, ptr %13, i64 16
  store i32 1, ptr %53, align 8, !tbaa !43
  %54 = getelementptr inbounds nuw i8, ptr %13, i64 20
  store i32 0, ptr %54, align 4, !tbaa !44
  %55 = getelementptr inbounds nuw i8, ptr %13, i64 56
  store i32 1, ptr %55, align 8, !tbaa !45
  %56 = getelementptr inbounds nuw i8, ptr %0, i64 2188
  store i32 1, ptr %56, align 4, !tbaa !46
  %57 = getelementptr inbounds nuw i8, ptr %0, i64 2200
  store i32 1, ptr %57, align 8, !tbaa !47
  br label %58

58:                                               ; preds = %46, %._crit_edge76, %28, %15, %11, %8, %5
  %.066 = phi i32 [ -21, %5 ], [ -22, %8 ], [ -22, %11 ], [ -20, %15 ], [ -20, %28 ], [ -20, %._crit_edge76 ], [ 0, %46 ]
  ret i32 %.066
}